; Function Attrs: mustprogress uwtable
define i32 @proj_errno_reset(ptr noundef %0) local_unnamed_addr #1 {
  %2 = tail call noundef ptr @_Z10pj_get_ctxP8PJconsts(ptr noundef %0)
  %3 = icmp eq ptr %2, null
  br i1 %3, label %4, label %proj_errno.exit

4:                                                ; preds = %1
  %5 = tail call noundef ptr @_Z18pj_get_default_ctxv()
  br label %proj_errno.exit

proj_errno.exit:                                  ; preds = %1, %4
  %.0.i.i = phi ptr [ %5, %4 ], [ %2, %1 ]
  %6 = getelementptr inbounds i8, ptr %.0.i.i, i64 32
  %7 = load i32, ptr %6, align 8
  %8 = tail call noundef ptr @_Z10pj_get_ctxP8PJconsts(ptr noundef %0)
  tail call void @_Z22proj_context_errno_setP6pj_ctxi(ptr noundef %8, i32 noundef 0)
  %9 = tail call ptr @__errno_location() #34
  store i32 0, ptr %9, align 4
  ret i32 %7
}